; ModuleID = 'source-C-CXX/26/1900.cpp'
source_filename = "source-C-CXX/26/1900.cpp"
target datalayout = "e-m:e-p270:32:32-p271:32:32-p272:64:64-i64:64-f80:128-n8:16:32:64-S128"
target triple = "x86_64-pc-linux-gnu"

%"class.std::ios_base::Init" = type { i8 }
%"class.std::basic_istream" = type { i32 (...)**, i64, %"class.std::basic_ios" }
%"class.std::basic_ios" = type { %"class.std::ios_base", %"class.std::basic_ostream"*, i8, i8, %"class.std::basic_streambuf"*, %"class.std::ctype"*, %"class.std::num_put"*, %"class.std::num_get"* }
%"class.std::ios_base" = type { i32 (...)**, i64, i64, i32, i32, i32, %"struct.std::ios_base::_Callback_list"*, %"struct.std::ios_base::_Words", [8 x %"struct.std::ios_base::_Words"], i32, %"struct.std::ios_base::_Words"*, %"class.std::locale" }
%"struct.std::ios_base::_Callback_list" = type { %"struct.std::ios_base::_Callback_list"*, void (i32, %"class.std::ios_base"*, i32)*, i32, i32 }
%"struct.std::ios_base::_Words" = type { i8*, i64 }
%"class.std::locale" = type { %"class.std::locale::_Impl"* }
%"class.std::locale::_Impl" = type { i32, %"class.std::locale::facet"**, i64, %"class.std::locale::facet"**, i8** }
%"class.std::locale::facet" = type <{ i32 (...)**, i32, [4 x i8] }>
%"class.std::basic_ostream" = type { i32 (...)**, %"class.std::basic_ios" }
%"class.std::basic_streambuf" = type { i32 (...)**, i8*, i8*, i8*, i8*, i8*, i8*, %"class.std::locale" }
%"class.std::ctype" = type <{ %"class.std::locale::facet.base", [4 x i8], %struct.__locale_struct*, i8, [7 x i8], i32*, i32*, i16*, i8, [256 x i8], [256 x i8], i8, [6 x i8] }>
%"class.std::locale::facet.base" = type <{ i32 (...)**, i32 }>
%struct.__locale_struct = type { [13 x %struct.__locale_data*], i16*, i32*, i32*, [13 x i8*] }
%struct.__locale_data = type opaque
%"class.std::num_put" = type { %"class.std::locale::facet.base", [4 x i8] }
%"class.std::num_get" = type { %"class.std::locale::facet.base", [4 x i8] }

@_ZStL8__ioinit = internal global %"class.std::ios_base::Init" zeroinitializer, align 1
@__dso_handle = external hidden global i8
@_ZSt3cin = external global %"class.std::basic_istream", align 8
@.str = private unnamed_addr constant [17 x i8] c"x1=%.5f;x2=%.5f\0A\00", align 1
@.str.1 = private unnamed_addr constant [12 x i8] c"x1=x2=%.5f\0A\00", align 1
@.str.2 = private unnamed_addr constant [29 x i8] c"x1=%.5f+%.5fi;x2=%.5f-%.5fi\0A\00", align 1
@.str.3 = private unnamed_addr constant [35 x i8] c"x1=0.00000+%.5fi;x2=0.00000-%.5fi\0A\00", align 1
@llvm.global_ctors = appending global [1 x { i32, void ()*, i8* }] [{ i32, void ()*, i8* } { i32 65535, void ()* @_GLOBAL__sub_I_1900.cpp, i8* null }]

declare void @_ZNSt8ios_base4InitC1Ev(%"class.std::ios_base::Init"* nonnull align 1 dereferenceable(1)) unnamed_addr #0

; Function Attrs: nounwind
declare void @_ZNSt8ios_base4InitD1Ev(%"class.std::ios_base::Init"* nonnull align 1 dereferenceable(1)) unnamed_addr #1

; Function Attrs: nofree nounwind
declare i32 @__cxa_atexit(void (i8*)*, i8*, i8*) local_unnamed_addr #2

; Function Attrs: mustprogress norecurse sspstrong uwtable
define dso_local i32 @main() local_unnamed_addr #3 {
  %1 = alloca float, align 4
  %2 = alloca float, align 4
  %3 = alloca float, align 4
  %4 = alloca double, align 8
  %5 = bitcast float* %1 to i8*
  call void @llvm.lifetime.start.p0i8(i64 4, i8* nonnull %5) #8
  %6 = bitcast float* %2 to i8*
  call void @llvm.lifetime.start.p0i8(i64 4, i8* nonnull %6) #8
  %7 = bitcast float* %3 to i8*
  call void @llvm.lifetime.start.p0i8(i64 4, i8* nonnull %7) #8
  %8 = bitcast double* %4 to i8*
  call void @llvm.lifetime.start.p0i8(i64 8, i8* nonnull %8) #8
  %9 = call nonnull align 8 dereferenceable(16) %"class.std::basic_istream"* @_ZNSi10_M_extractIdEERSiRT_(%"class.std::basic_istream"* nonnull align 8 dereferenceable(16) @_ZSt3cin, double* nonnull align 8 dereferenceable(8) %4)
  %10 = load double, double* %4, align 8, !tbaa !5
  %11 = fcmp ult double %10, 1.000000e+00
  br i1 %11, label %76, label %12

12:                                               ; preds = %0, %72
  %13 = phi double [ %73, %72 ], [ 1.000000e+00, %0 ]
  %14 = call nonnull align 8 dereferenceable(16) %"class.std::basic_istream"* @_ZNSi10_M_extractIfEERSiRT_(%"class.std::basic_istream"* nonnull align 8 dereferenceable(16) @_ZSt3cin, float* nonnull align 4 dereferenceable(4) %1)
  %15 = call nonnull align 8 dereferenceable(16) %"class.std::basic_istream"* @_ZNSi10_M_extractIfEERSiRT_(%"class.std::basic_istream"* nonnull align 8 dereferenceable(16) %14, float* nonnull align 4 dereferenceable(4) %2)
  %16 = call nonnull align 8 dereferenceable(16) %"class.std::basic_istream"* @_ZNSi10_M_extractIfEERSiRT_(%"class.std::basic_istream"* nonnull align 8 dereferenceable(16) %15, float* nonnull align 4 dereferenceable(4) %3)
  %17 = load float, float* %2, align 4, !tbaa !9
  %18 = fmul float %17, %17
  %19 = load float, float* %1, align 4, !tbaa !9
  %20 = fmul float %19, 4.000000e+00
  %21 = load float, float* %3, align 4, !tbaa !9
  %22 = fmul float %20, %21
  %23 = fsub float %18, %22
  %24 = fcmp ult float %23, 0.000000e+00
  br i1 %24, label %55, label %25

25:                                               ; preds = %12
  %26 = call float @sqrtf(float %23) #8
  %27 = load float, float* %1, align 4, !tbaa !9
  %28 = load float, float* %2, align 4, !tbaa !9
  %29 = fneg float %28
  %30 = fmul float %28, %28
  %31 = fmul float %27, 4.000000e+00
  %32 = load float, float* %3, align 4, !tbaa !9
  %33 = fmul float %31, %32
  %34 = fsub float %30, %33
  %35 = call float @sqrtf(float %34) #8
  %36 = insertelement <2 x float> poison, float %26, i32 0
  %37 = insertelement <2 x float> %36, float %29, i32 1
  %38 = insertelement <2 x float> poison, float %17, i32 0
  %39 = insertelement <2 x float> %38, float %35, i32 1
  %40 = fsub <2 x float> %37, %39
  %41 = load float, float* %1, align 4, !tbaa !9
  %42 = insertelement <2 x float> poison, float %27, i32 0
  %43 = insertelement <2 x float> %42, float %41, i32 1
  %44 = fmul <2 x float> %43, <float 2.000000e+00, float 2.000000e+00>
  %45 = fdiv <2 x float> %40, %44
  %46 = extractelement <2 x float> %45, i32 0
  %47 = fpext float %46 to double
  %48 = extractelement <2 x float> %45, i32 1
  %49 = fcmp une float %46, %48
  br i1 %49, label %50, label %53

50:                                               ; preds = %25
  %51 = fpext float %48 to double
  %52 = call i32 (i8*, ...) @printf(i8* nonnull dereferenceable(1) getelementptr inbounds ([17 x i8], [17 x i8]* @.str, i64 0, i64 0), double %47, double %51)
  br label %72

53:                                               ; preds = %25
  %54 = call i32 (i8*, ...) @printf(i8* nonnull dereferenceable(1) getelementptr inbounds ([12 x i8], [12 x i8]* @.str.1, i64 0, i64 0), double %47)
  br label %72

55:                                               ; preds = %12
  %56 = fcmp olt float %23, 0.000000e+00
  br i1 %56, label %57, label %72

57:                                               ; preds = %55
  %58 = fmul float %17, -5.000000e-01
  %59 = fdiv float %58, %19
  %60 = fpext float %59 to double
  %61 = fsub float %22, %18
  %62 = call float @sqrtf(float %61) #8
  %63 = fmul float %62, 5.000000e-01
  %64 = load float, float* %1, align 4, !tbaa !9
  %65 = fdiv float %63, %64
  %66 = fpext float %65 to double
  %67 = fcmp une float %59, 0.000000e+00
  br i1 %67, label %68, label %70

68:                                               ; preds = %57
  %69 = call i32 (i8*, ...) @printf(i8* nonnull dereferenceable(1) getelementptr inbounds ([29 x i8], [29 x i8]* @.str.2, i64 0, i64 0), double %60, double %66, double %60, double %66)
  br label %72

70:                                               ; preds = %57
  %71 = call i32 (i8*, ...) @printf(i8* nonnull dereferenceable(1) getelementptr inbounds ([35 x i8], [35 x i8]* @.str.3, i64 0, i64 0), double %66, double %66)
  br label %72

72:                                               ; preds = %53, %50, %68, %70, %55
  %73 = fadd double %13, 1.000000e+00
  %74 = load double, double* %4, align 8, !tbaa !5
  %75 = fcmp ugt double %73, %74
  br i1 %75, label %76, label %12, !llvm.loop !11

76:                                               ; preds = %72, %0
  call void @llvm.lifetime.end.p0i8(i64 8, i8* nonnull %8) #8
  call void @llvm.lifetime.end.p0i8(i64 4, i8* nonnull %7) #8
  call void @llvm.lifetime.end.p0i8(i64 4, i8* nonnull %6) #8
  call void @llvm.lifetime.end.p0i8(i64 4, i8* nonnull %5) #8
  ret i32 0
}

; Function Attrs: argmemonly mustprogress nofree nosync nounwind willreturn
declare void @llvm.lifetime.start.p0i8(i64 immarg, i8* nocapture) #4

; Function Attrs: nofree nounwind
declare noundef i32 @printf(i8* nocapture noundef readonly, ...) local_unnamed_addr #5

; Function Attrs: argmemonly mustprogress nofree nosync nounwind willreturn
declare void @llvm.lifetime.end.p0i8(i64 immarg, i8* nocapture) #4

; Function Attrs: mustprogress nofree nounwind willreturn
declare float @sqrtf(float) local_unnamed_addr #6

declare nonnull align 8 dereferenceable(16) %"class.std::basic_istream"* @_ZNSi10_M_extractIdEERSiRT_(%"class.std::basic_istream"* nonnull align 8 dereferenceable(16), double* nonnull align 8 dereferenceable(8)) local_unnamed_addr #0

declare nonnull align 8 dereferenceable(16) %"class.std::basic_istream"* @_ZNSi10_M_extractIfEERSiRT_(%"class.std::basic_istream"* nonnull align 8 dereferenceable(16), float* nonnull align 4 dereferenceable(4)) local_unnamed_addr #0

; Function Attrs: sspstrong uwtable
define internal void @_GLOBAL__sub_I_1900.cpp() #7 section ".text.startup" {
  tail call void @_ZNSt8ios_base4InitC1Ev(%"class.std::ios_base::Init"* nonnull align 1 dereferenceable(1) @_ZStL8__ioinit)
  %1 = tail call i32 @__cxa_atexit(void (i8*)* bitcast (void (%"class.std::ios_base::Init"*)* @_ZNSt8ios_base4InitD1Ev to void (i8*)*), i8* getelementptr inbounds (%"class.std::ios_base::Init", %"class.std::ios_base::Init"* @_ZStL8__ioinit, i64 0, i32 0), i8* nonnull @__dso_handle) #8
  ret void
}


!llvm.module.flags = !{!0, !1, !2, !3}
!llvm.ident = !{!4}

!0 = !{i32 1, !"wchar_size", i32 4}
!1 = !{i32 7, !"PIC Level", i32 2}
!2 = !{i32 7, !"PIE Level", i32 2}
!3 = !{i32 7, !"uwtable", i32 1}
!4 = !{!"clang version 13.0.0"}
!5 = !{!6, !6, i64 0}
!6 = !{!"double", !7, i64 0}
!7 = !{!"omnipotent char", !8, i64 0}
!8 = !{!"Simple C++ TBAA"}
!9 = !{!10, !10, i64 0}
!10 = !{!"float", !7, i64 0}
!11 = distinct !{!11, !12}
!12 = !{!"llvm.loop.mustprogress"}
